; Function Attrs: nounwind uwtable
define ptr @lv_chart_get_series_next(ptr noundef %0, ptr noundef %1) local_unnamed_addr #0 {
  %3 = icmp eq ptr %1, null
  %4 = getelementptr inbounds nuw i8, ptr %0, i64 64
  br i1 %3, label %5, label %7

5:                                                ; preds = %2
  %6 = tail call ptr @lv_ll_get_head(ptr noundef nonnull %4) #8
  br label %9

7:                                                ; preds = %2
  %8 = tail call ptr @lv_ll_get_next(ptr noundef nonnull %4, ptr noundef nonnull %1) #8
  br label %9

9:                                                ; preds = %7, %5
  %.0 = phi ptr [ %6, %5 ], [ %8, %7 ]
  ret ptr %.0
}